; Function Attrs: null_pointer_is_valid sspstrong uwtable
define internal noundef zeroext i1 @dissect_lbtrm_sqn_frame_list_callback(ptr readnone captures(none) %0, ptr noundef readonly captures(none) %1, ptr noundef readonly captures(none) %2) #0 {
  %4 = load i32, ptr %1, align 4
  %5 = getelementptr inbounds nuw i8, ptr %2, i64 16
  %6 = load i32, ptr %5, align 8
  %.not = icmp eq i32 %4, %6
  br i1 %.not, label %proto_item_set_generated.exit, label %7

7:                                                ; preds = %3
  %8 = getelementptr inbounds nuw i8, ptr %1, i64 4
  %9 = load i8, ptr %8, align 4, !range !10, !noundef !11
  %10 = trunc nuw i8 %9 to i1
  %11 = load ptr, ptr %2, align 8
  %12 = load i32, ptr @hf_lbtrm_analysis_sqn_frame, align 4
  %13 = getelementptr inbounds nuw i8, ptr %2, i64 8
  %14 = load ptr, ptr %13, align 8
  br i1 %10, label %15, label %17

15:                                               ; preds = %7
  %16 = tail call ptr (ptr, i32, ptr, i32, i32, i32, ptr, ...) @proto_tree_add_uint_format_value(ptr noundef %11, i32 noundef %12, ptr noundef %14, i32 noundef 0, i32 noundef 0, i32 noundef %4, ptr noundef nonnull @.str.227, i32 noundef %4)
  br label %19

17:                                               ; preds = %7
  %18 = tail call ptr @proto_tree_add_uint(ptr noundef %11, i32 noundef %12, ptr noundef %14, i32 noundef 0, i32 noundef 0, i32 noundef %4)
  br label %19

19:                                               ; preds = %17, %15
  %.0 = phi ptr [ %16, %15 ], [ %18, %17 ]
  %.not.i = icmp eq ptr %.0, null
  br i1 %.not.i, label %proto_item_set_generated.exit, label %20

20:                                               ; preds = %19
  %21 = getelementptr inbounds nuw i8, ptr %.0, i64 40
  %22 = load ptr, ptr %21, align 8
  %.not5.i = icmp eq ptr %22, null
  br i1 %.not5.i, label %proto_item_set_generated.exit, label %23

23:                                               ; preds = %20
  %24 = getelementptr inbounds nuw i8, ptr %22, i64 28
  %25 = load i32, ptr %24, align 4
  %26 = or i32 %25, 2
  store i32 %26, ptr %24, align 4
  br label %proto_item_set_generated.exit

proto_item_set_generated.exit:                    ; preds = %23, %20, %19, %3
  ret i1 false
}